target datalayout = "e-m:e-p270:32:32-p271:32:32-p272:64:64-i64:64-i128:128-f80:128-n8:16:32:64-S128"
target triple = "x86_64-pc-linux-gnu"

%"class.google::protobuf::stringpiece_internal::StringPiece" = type { ptr, i64 }

; Function Attrs: mustprogress nounwind uwtable
define linkonce_odr hidden noundef zeroext i1 @_ZNK6google8protobuf20stringpiece_internal11StringPiece5emptyEv(ptr noundef nonnull align 8 dereferenceable(16) %0) #2 comdat align 2 {
  %2 = alloca ptr, align 8
  store ptr %0, ptr %2, align 8, !tbaa !8
  %3 = load ptr, ptr %2, align 8
  %4 = getelementptr inbounds nuw %"class.google::protobuf::stringpiece_internal::StringPiece", ptr %3, i32 0, i32 1
  %5 = load i64, ptr %4, align 8, !tbaa !14
  %6 = icmp eq i64 %5, 0
  ret i1 %6
}

; Function Attrs: mustprogress uwtable
define hidden noundef i64 @_ZNK6google8protobuf20stringpiece_internal11StringPiece17find_first_not_ofEcm(ptr noundef nonnull align 8 dereferenceable(16) %0, i8 noundef signext %1, i64 noundef %2) #0 align 2 {
  %4 = alloca i64, align 8
  %5 = alloca ptr, align 8
  %6 = alloca i8, align 1
  %7 = alloca i64, align 8
  store ptr %0, ptr %5, align 8, !tbaa !8
  store i8 %1, ptr %6, align 1, !tbaa !22
  store i64 %2, ptr %7, align 8, !tbaa !15
  %8 = load ptr, ptr %5, align 8
  %9 = call noundef zeroext i1 @_ZNK6google8protobuf20stringpiece_internal11StringPiece5emptyEv(ptr noundef nonnull align 8 dereferenceable(16) %8)
  br i1 %9, label %10, label %11

10:                                               ; preds = %3
  store i64 -1, ptr %4, align 8
  br label %34

11:                                               ; preds = %3
  br label %12

12:                                               ; preds = %30, %11
  %13 = load i64, ptr %7, align 8, !tbaa !15
  %14 = getelementptr inbounds nuw %"class.google::protobuf::stringpiece_internal::StringPiece", ptr %8, i32 0, i32 1
  %15 = load i64, ptr %14, align 8, !tbaa !14
  %16 = icmp ult i64 %13, %15
  br i1 %16, label %17, label %33

17:                                               ; preds = %12
  %18 = getelementptr inbounds nuw %"class.google::protobuf::stringpiece_internal::StringPiece", ptr %8, i32 0, i32 0
  %19 = load ptr, ptr %18, align 8, !tbaa !10
  %20 = load i64, ptr %7, align 8, !tbaa !15
  %21 = getelementptr inbounds nuw i8, ptr %19, i64 %20
  %22 = load i8, ptr %21, align 1, !tbaa !22
  %23 = sext i8 %22 to i32
  %24 = load i8, ptr %6, align 1, !tbaa !22
  %25 = sext i8 %24 to i32
  %26 = icmp ne i32 %23, %25
  br i1 %26, label %27, label %29

27:                                               ; preds = %17
  %28 = load i64, ptr %7, align 8, !tbaa !15
  store i64 %28, ptr %4, align 8
  br label %34

29:                                               ; preds = %17
  br label %30

30:                                               ; preds = %29
  %31 = load i64, ptr %7, align 8, !tbaa !15
  %32 = add i64 %31, 1
  store i64 %32, ptr %7, align 8, !tbaa !15
  br label %12, !llvm.loop !34

33:                                               ; preds = %12
  store i64 -1, ptr %4, align 8
  br label %34

34:                                               ; preds = %33, %27, %10
  %35 = load i64, ptr %4, align 8
  ret i64 %35
}